target datalayout = "e-m:e-p270:32:32-p271:32:32-p272:64:64-i64:64-i128:128-f80:128-n8:16:32:64-S128"
target triple = "x86_64-pc-linux-gnu"

%struct._zend_executor_globals = type { %struct._zval_struct, %struct._zval_struct, [32 x ptr], ptr, ptr, %struct._zend_array, %struct._zend_array, ptr, i32, i32, ptr, ptr, ptr, ptr, ptr, ptr, i64, ptr, ptr, i32, i32, i64, i32, i32, i32, i8, i8, %struct.zend_atomic_bool_s, %struct.zend_atomic_bool_s, ptr, i64, ptr, ptr, %struct._zend_array, %struct._zend_array, i32, i8, %struct._zval_struct, %struct._zval_struct, %struct._zend_stack, %struct._zend_stack, %struct._zend_stack, ptr, i32, i32, i64, ptr, ptr, ptr, %struct._zend_objects_store, ptr, ptr, ptr, [3 x %struct._zend_op], ptr, i8, i8, i64, i32, i32, ptr, [16 x %struct._HashTableIterator], ptr, %union._zend_function, %struct._zend_op, %struct._zend_array, i64, %struct.zend_get_gc_buffer, ptr, ptr, ptr, i64, i8, i32, ptr, ptr, i64, %struct._zend_call_stack, i64, i64, [6 x ptr] }
%struct.zend_atomic_bool_s = type { i8 }
%struct._zval_struct = type { %union._zend_value, %union.anon, %union.anon.2 }
%union._zend_value = type { i64 }
%union.anon = type { i32 }
%union.anon.2 = type { i32 }
%struct._zend_stack = type { i32, i32, i32, ptr }
%struct._zend_objects_store = type { ptr, i32, i32, i32 }
%struct._HashTableIterator = type { ptr, i32, i32 }
%union._zend_function = type { %struct._zend_op_array }
%struct._zend_op_array = type { i8, [3 x i8], i32, ptr, ptr, ptr, i32, i32, ptr, ptr, ptr, ptr, i32, i32, i32, i32, ptr, ptr, ptr, ptr, ptr, i32, i32, ptr, ptr, ptr, i32, i32, i32, i32, ptr, ptr, [6 x ptr] }
%struct._zend_op = type { ptr, %union._znode_op, %union._znode_op, %union._znode_op, i32, i32, i8, i8, i8, i8 }
%union._znode_op = type { i32 }
%struct._zend_array = type { %struct._zend_refcounted_h, %union.anon.4, i32, %union.anon.6, i32, i32, i32, i32, i64, ptr }
%struct._zend_refcounted_h = type { i32, %union.anon.3 }
%union.anon.3 = type { i32 }
%union.anon.4 = type { i32 }
%union.anon.6 = type { ptr }
%struct.zend_get_gc_buffer = type { ptr, ptr, ptr }
%struct._zend_call_stack = type { ptr, i64 }
%struct._zend_object_iterator_funcs = type { ptr, ptr, ptr, ptr, ptr, ptr, ptr, ptr }
%struct._zend_execute_data = type { ptr, ptr, ptr, ptr, %struct._zval_struct, ptr, ptr, ptr, ptr }
%struct._zend_object = type { %struct._zend_refcounted_h, i32, ptr, ptr, ptr, [1 x %struct._zval_struct] }
%struct._spl_recursive_it_object = type { ptr, i32, i32, i32, i32, i8, ptr, ptr, ptr, ptr, ptr, ptr, ptr, ptr, [6 x ptr], [1 x ptr], %struct._zend_object }
%struct._spl_sub_iterator = type { ptr, %struct._zval_struct, ptr, i32, ptr, ptr }
%struct._zend_object_iterator = type { %struct._zend_object, %struct._zval_struct, ptr, i64 }
%struct._zend_reference = type { %struct._zend_refcounted_h, %struct._zval_struct, %union.zend_property_info_source_list }
%union.zend_property_info_source_list = type { ptr }
%struct._zend_string = type { %struct._zend_refcounted_h, i64, i64, [1 x i8] }

@executor_globals = external global %struct._zend_executor_globals, align 8
@.str = private unnamed_addr constant [75 x i8] c"The object is in an invalid state as the parent constructor was not called\00", align 1
@zend_known_strings = external global ptr, align 8

; Function Attrs: nounwind uwtable
define internal ptr @spl_recursive_tree_iterator_get_entry(ptr noundef %0) #0 {
  %2 = alloca ptr, align 8
  %3 = alloca i32, align 4
  %4 = alloca ptr, align 8
  %5 = alloca ptr, align 8
  %6 = alloca ptr, align 8
  %7 = alloca ptr, align 8
  %8 = alloca ptr, align 8
  %9 = alloca ptr, align 8
  %10 = alloca ptr, align 8
  %11 = alloca ptr, align 8
  %12 = alloca ptr, align 8
  store ptr %0, ptr %10, align 8
  %13 = load ptr, ptr %10, align 8
  %14 = getelementptr inbounds %struct._spl_recursive_it_object, ptr %13, i32 0, i32 0
  %15 = load ptr, ptr %14, align 8
  %16 = load ptr, ptr %10, align 8
  %17 = getelementptr inbounds %struct._spl_recursive_it_object, ptr %16, i32 0, i32 1
  %18 = load i32, ptr %17, align 8
  %19 = sext i32 %18 to i64
  %20 = getelementptr inbounds %struct._spl_sub_iterator, ptr %15, i64 %19
  %21 = getelementptr inbounds %struct._spl_sub_iterator, ptr %20, i32 0, i32 0
  %22 = load ptr, ptr %21, align 8
  store ptr %22, ptr %11, align 8
  %23 = load ptr, ptr %11, align 8
  %24 = getelementptr inbounds %struct._zend_object_iterator, ptr %23, i32 0, i32 2
  %25 = load ptr, ptr %24, align 8
  %26 = getelementptr inbounds %struct._zend_object_iterator_funcs, ptr %25, i32 0, i32 2
  %27 = load ptr, ptr %26, align 8
  %28 = load ptr, ptr %11, align 8
  %29 = call ptr %27(ptr noundef %28)
  store ptr %29, ptr %12, align 8
  %30 = load ptr, ptr %12, align 8
  %31 = icmp ne ptr %30, null
  br i1 %31, label %33, label %32

32:                                               ; preds = %1
  store ptr null, ptr %9, align 8
  br label %93

33:                                               ; preds = %1
  br label %34

34:                                               ; preds = %33
  %35 = load ptr, ptr %12, align 8
  store ptr %35, ptr %7, align 8
  %36 = load ptr, ptr %7, align 8
  %37 = getelementptr inbounds %struct._zval_struct, ptr %36, i32 0, i32 1
  %38 = load i8, ptr %37, align 8
  %39 = zext i8 %38 to i32
  %40 = icmp eq i32 %39, 10
  %41 = xor i1 %40, true
  %42 = xor i1 %41, true
  %43 = zext i1 %42 to i32
  %44 = sext i32 %43 to i64
  %45 = icmp ne i64 %44, 0
  br i1 %45, label %46, label %51

46:                                               ; preds = %34
  %47 = load ptr, ptr %12, align 8
  %48 = getelementptr inbounds %struct._zval_struct, ptr %47, i32 0, i32 0
  %49 = load ptr, ptr %48, align 8
  %50 = getelementptr inbounds %struct._zend_reference, ptr %49, i32 0, i32 1
  store ptr %50, ptr %12, align 8
  br label %51

51:                                               ; preds = %46, %34
  br label %52

52:                                               ; preds = %51
  %53 = load ptr, ptr %12, align 8
  store ptr %53, ptr %8, align 8
  %54 = load ptr, ptr %8, align 8
  %55 = getelementptr inbounds %struct._zval_struct, ptr %54, i32 0, i32 1
  %56 = load i8, ptr %55, align 8
  %57 = zext i8 %56 to i32
  %58 = icmp eq i32 %57, 7
  br i1 %58, label %59, label %63

59:                                               ; preds = %52
  %60 = load ptr, ptr @zend_known_strings, align 8
  %61 = getelementptr inbounds ptr, ptr %60, i64 47
  %62 = load ptr, ptr %61, align 8
  store ptr %62, ptr %9, align 8
  br label %93

63:                                               ; preds = %52
  %64 = load ptr, ptr %12, align 8
  store ptr %64, ptr %6, align 8
  %65 = load ptr, ptr %6, align 8
  store ptr %65, ptr %5, align 8
  %66 = load ptr, ptr %5, align 8
  %67 = getelementptr inbounds %struct._zval_struct, ptr %66, i32 0, i32 1
  %68 = load i8, ptr %67, align 8
  %69 = zext i8 %68 to i32
  %70 = icmp eq i32 %69, 6
  br i1 %70, label %71, label %88

71:                                               ; preds = %63
  %72 = load ptr, ptr %6, align 8
  %73 = load ptr, ptr %72, align 8
  store ptr %73, ptr %4, align 8
  %74 = load ptr, ptr %4, align 8
  %75 = getelementptr inbounds %struct._zend_refcounted_h, ptr %74, i32 0, i32 1
  %76 = load i32, ptr %75, align 4
  store i32 %76, ptr %3, align 4
  %77 = load i32, ptr %3, align 4
  %78 = and i32 %77, 1008
  %79 = and i32 %78, 64
  %80 = icmp ne i32 %79, 0
  br i1 %80, label %86, label %81

81:                                               ; preds = %71
  %82 = load ptr, ptr %4, align 8
  store ptr %82, ptr %2, align 8
  %83 = load ptr, ptr %2, align 8
  %84 = load i32, ptr %83, align 4
  %85 = add i32 %84, 1
  store i32 %85, ptr %83, align 4
  br label %86

86:                                               ; preds = %81, %71
  %87 = load ptr, ptr %4, align 8
  br label %91

88:                                               ; preds = %63
  %89 = load ptr, ptr %6, align 8
  %90 = call ptr @zval_get_string_func(ptr noundef %89) #10
  br label %91

91:                                               ; preds = %88, %86
  %92 = phi ptr [ %87, %86 ], [ %90, %88 ]
  store ptr %92, ptr %9, align 8
  br label %93

93:                                               ; preds = %91, %59, %32
  %94 = load ptr, ptr %9, align 8
  ret ptr %94
}

; Function Attrs: nounwind uwtable
define internal ptr @spl_recursive_it_from_obj(ptr noundef %0) #0 {
  %2 = alloca ptr, align 8
  store ptr %0, ptr %2, align 8
  %3 = load ptr, ptr %2, align 8
  %4 = getelementptr inbounds i8, ptr %3, i64 -152
  ret ptr %4
}

; Function Attrs: nounwind uwtable
define hidden void @zim_RecursiveTreeIterator_getEntry(ptr noundef %0, ptr noundef %1) #0 {
  %3 = alloca i32, align 4
  %4 = alloca ptr, align 8
  %5 = alloca ptr, align 8
  %6 = alloca ptr, align 8
  %7 = alloca ptr, align 8
  %8 = alloca ptr, align 8
  %9 = alloca ptr, align 8
  store ptr %0, ptr %4, align 8
  store ptr %1, ptr %5, align 8
  %10 = load ptr, ptr %4, align 8
  %11 = getelementptr inbounds %struct._zend_execute_data, ptr %10, i32 0, i32 4
  %12 = getelementptr inbounds %struct._zval_struct, ptr %11, i32 0, i32 0
  %13 = load ptr, ptr %12, align 8
  %14 = call ptr @spl_recursive_it_from_obj(ptr noundef %13)
  store ptr %14, ptr %6, align 8
  %15 = load ptr, ptr %4, align 8
  %16 = getelementptr inbounds %struct._zend_execute_data, ptr %15, i32 0, i32 4
  %17 = getelementptr inbounds %struct._zval_struct, ptr %16, i32 0, i32 2
  %18 = load i32, ptr %17, align 4
  %19 = icmp eq i32 %18, 0
  %20 = xor i1 %19, true
  %21 = xor i1 %20, true
  %22 = zext i1 %21 to i32
  %23 = sext i32 %22 to i64
  %24 = icmp ne i64 %23, 0
  br i1 %24, label %25, label %26

25:                                               ; preds = %2
  br label %27

26:                                               ; preds = %2
  call void @zend_wrong_parameters_none_error()
  br label %27

27:                                               ; preds = %26, %25
  %28 = phi i32 [ 0, %25 ], [ -1, %26 ]
  %29 = icmp eq i32 %28, -1
  br i1 %29, label %30, label %35

30:                                               ; preds = %27
  br label %31

31:                                               ; preds = %30
  %32 = load ptr, ptr getelementptr inbounds (%struct._zend_executor_globals, ptr @executor_globals, i32 0, i32 50), align 8
  %33 = icmp ne ptr %32, null
  call void @llvm.assume(i1 %33)
  br label %77

34:                                               ; No predecessors!
  br label %35

35:                                               ; preds = %34, %27
  %36 = load ptr, ptr %6, align 8
  %37 = getelementptr inbounds %struct._spl_recursive_it_object, ptr %36, i32 0, i32 0
  %38 = load ptr, ptr %37, align 8
  %39 = icmp ne ptr %38, null
  br i1 %39, label %45, label %40

40:                                               ; preds = %35
  call void (ptr, ptr, ...) @zend_throw_error(ptr noundef null, ptr noundef @.str)
  br label %41

41:                                               ; preds = %40
  %42 = load ptr, ptr getelementptr inbounds (%struct._zend_executor_globals, ptr @executor_globals, i32 0, i32 50), align 8
  %43 = icmp ne ptr %42, null
  call void @llvm.assume(i1 %43)
  br label %77

44:                                               ; No predecessors!
  br label %45

45:                                               ; preds = %44, %35
  %46 = load ptr, ptr %6, align 8
  %47 = call ptr @spl_recursive_tree_iterator_get_entry(ptr noundef %46)
  store ptr %47, ptr %7, align 8
  %48 = load ptr, ptr %7, align 8
  %49 = icmp ne ptr %48, null
  br i1 %49, label %57, label %50

50:                                               ; preds = %45
  br label %51

51:                                               ; preds = %50
  br label %52

52:                                               ; preds = %51
  %53 = load ptr, ptr %5, align 8
  %54 = getelementptr inbounds %struct._zval_struct, ptr %53, i32 0, i32 1
  store i32 1, ptr %54, align 8
  br label %55

55:                                               ; preds = %52
  br label %77

56:                                               ; No predecessors!
  br label %57

57:                                               ; preds = %56, %45
  br label %58

58:                                               ; preds = %57
  br label %59

59:                                               ; preds = %58
  %60 = load ptr, ptr %5, align 8
  store ptr %60, ptr %8, align 8
  %61 = load ptr, ptr %7, align 8
  store ptr %61, ptr %9, align 8
  %62 = load ptr, ptr %9, align 8
  %63 = load ptr, ptr %8, align 8
  %64 = getelementptr inbounds %struct._zval_struct, ptr %63, i32 0, i32 0
  store ptr %62, ptr %64, align 8
  %65 = load ptr, ptr %9, align 8
  %66 = getelementptr inbounds %struct._zend_string, ptr %65, i32 0, i32 0
  %67 = getelementptr inbounds %struct._zend_refcounted_h, ptr %66, i32 0, i32 1
  %68 = load i32, ptr %67, align 4
  store i32 %68, ptr %3, align 4
  %69 = load i32, ptr %3, align 4
  %70 = and i32 %69, 1008
  %71 = and i32 %70, 64
  %72 = icmp ne i32 %71, 0
  %73 = select i1 %72, i32 6, i32 262
  %74 = load ptr, ptr %8, align 8
  %75 = getelementptr inbounds %struct._zval_struct, ptr %74, i32 0, i32 1
  store i32 %73, ptr %75, align 8
  br label %76

76:                                               ; preds = %59
  br label %77

77:                                               ; preds = %76, %55, %41, %31
  ret void
}