; Function Attrs: nounwind uwtable
define hidden void @zim_RecursiveTreeIterator_getEntry(ptr nocapture noundef readonly %0, ptr nocapture noundef writeonly %1) #0 {
  %3 = getelementptr inbounds i8, ptr %0, i64 32
  %4 = load ptr, ptr %3, align 8
  %5 = getelementptr inbounds i8, ptr %0, i64 44
  %6 = load i32, ptr %5, align 4
  %.not = icmp eq i32 %6, 0
  br i1 %.not, label %.critedge, label %7

7:                                                ; preds = %2
  tail call void @zend_wrong_parameters_none_error() #10
  %8 = load ptr, ptr getelementptr inbounds (%struct._zend_executor_globals, ptr @executor_globals, i64 0, i32 50), align 8
  %9 = icmp ne ptr %8, null
  tail call void @llvm.assume(i1 %9)
  br label %54

.critedge:                                        ; preds = %2
  %10 = getelementptr inbounds i8, ptr %4, i64 -152
  %11 = load ptr, ptr %10, align 8
  %.not12 = icmp eq ptr %11, null
  br i1 %.not12, label %12, label %15

12:                                               ; preds = %.critedge
  tail call void (ptr, ptr, ...) @zend_throw_error(ptr noundef null, ptr noundef nonnull @.str) #10
  %13 = load ptr, ptr getelementptr inbounds (%struct._zend_executor_globals, ptr @executor_globals, i64 0, i32 50), align 8
  %14 = icmp ne ptr %13, null
  tail call void @llvm.assume(i1 %14)
  br label %54

15:                                               ; preds = %.critedge
  %16 = getelementptr i8, ptr %4, i64 -144
  %.val15 = load i32, ptr %16, align 8
  %17 = sext i32 %.val15 to i64
  %18 = getelementptr inbounds %struct._spl_sub_iterator, ptr %11, i64 %17
  %19 = load ptr, ptr %18, align 8
  %20 = getelementptr inbounds i8, ptr %19, i64 72
  %21 = load ptr, ptr %20, align 8
  %22 = getelementptr inbounds i8, ptr %21, i64 16
  %23 = load ptr, ptr %22, align 8
  %24 = tail call ptr %23(ptr noundef %19) #10
  %.not.i = icmp eq ptr %24, null
  br i1 %.not.i, label %spl_recursive_tree_iterator_get_entry.exit.thread19, label %25

25:                                               ; preds = %15
  %26 = getelementptr inbounds i8, ptr %24, i64 8
  %27 = load i8, ptr %26, align 8
  %28 = icmp eq i8 %27, 10
  br i1 %28, label %29, label %32

29:                                               ; preds = %25
  %30 = load ptr, ptr %24, align 8
  %31 = getelementptr inbounds i8, ptr %30, i64 8
  %.phi.trans.insert.i = getelementptr inbounds i8, ptr %30, i64 16
  %.pre.i = load i8, ptr %.phi.trans.insert.i, align 8
  br label %32

32:                                               ; preds = %29, %25
  %33 = phi i8 [ %.pre.i, %29 ], [ %27, %25 ]
  %.0.i = phi ptr [ %31, %29 ], [ %24, %25 ]
  switch i8 %33, label %46 [
    i8 7, label %34
    i8 6, label %38
  ]

34:                                               ; preds = %32
  %35 = load ptr, ptr @zend_known_strings, align 8
  %36 = getelementptr inbounds i8, ptr %35, i64 376
  %37 = load ptr, ptr %36, align 8
  br label %spl_recursive_tree_iterator_get_entry.exit

38:                                               ; preds = %32
  %39 = load ptr, ptr %.0.i, align 8
  %40 = getelementptr inbounds i8, ptr %39, i64 4
  %41 = load i32, ptr %40, align 4
  %42 = and i32 %41, 64
  %.not23.i = icmp eq i32 %42, 0
  br i1 %.not23.i, label %43, label %spl_recursive_tree_iterator_get_entry.exit.thread

43:                                               ; preds = %38
  %44 = load i32, ptr %39, align 4
  %45 = add i32 %44, 1
  store i32 %45, ptr %39, align 4
  br label %spl_recursive_tree_iterator_get_entry.exit.thread

46:                                               ; preds = %32
  %47 = tail call ptr @zval_get_string_func(ptr noundef nonnull %.0.i) #10
  br label %spl_recursive_tree_iterator_get_entry.exit

spl_recursive_tree_iterator_get_entry.exit:       ; preds = %34, %46
  %.020.i = phi ptr [ %37, %34 ], [ %47, %46 ]
  %.not13 = icmp eq ptr %.020.i, null
  br i1 %.not13, label %spl_recursive_tree_iterator_get_entry.exit.thread19, label %spl_recursive_tree_iterator_get_entry.exit.thread

spl_recursive_tree_iterator_get_entry.exit.thread19: ; preds = %15, %spl_recursive_tree_iterator_get_entry.exit
  %48 = getelementptr inbounds i8, ptr %1, i64 8
  store i32 1, ptr %48, align 8
  br label %54

spl_recursive_tree_iterator_get_entry.exit.thread: ; preds = %38, %43, %spl_recursive_tree_iterator_get_entry.exit
  %.020.i18 = phi ptr [ %.020.i, %spl_recursive_tree_iterator_get_entry.exit ], [ %39, %43 ], [ %39, %38 ]
  store ptr %.020.i18, ptr %1, align 8
  %49 = getelementptr inbounds i8, ptr %.020.i18, i64 4
  %50 = load i32, ptr %49, align 4
  %51 = and i32 %50, 64
  %.not14 = icmp eq i32 %51, 0
  %52 = select i1 %.not14, i32 262, i32 6
  %53 = getelementptr inbounds i8, ptr %1, i64 8
  store i32 %52, ptr %53, align 8
  br label %54

54:                                               ; preds = %spl_recursive_tree_iterator_get_entry.exit.thread, %spl_recursive_tree_iterator_get_entry.exit.thread19, %12, %7
  ret void
}